(dp0
Vengine
p1
S'pdflatex'
p2
sVpackages
p3
c__builtin__
set
p4
((lp5
Vhyperref
p6
aVcaption
p7
aVamsmath
p8
aVgeometry
p9
aVgraphicx
p10
aVsubcaption
p11
aVamssymb
p12
atp13
Rp14
sVfiles_with_guttermarks
p15
g4
((lp16
V/Users/Daniel/Documents/Imperial/project/tevatron-higgs/report/./report.tex
p17
aS'report.tex'
p18
atp19
Rp20
sVsynctex
p21
I01
s.